target datalayout = "e-m:e-p270:32:32-p271:32:32-p272:64:64-i64:64-i128:128-f80:128-n8:16:32:64-S128"
target triple = "x86_64-unknown-linux-gnu"

%"class.re2::Regexp" = type { i8, i8, i16, i16, i16, %union.anon, ptr, %union.anon.0 }
%union.anon = type { ptr }
%union.anon.0 = type { %struct.anon.1 }
%struct.anon.1 = type { i32, ptr }
%"class.absl::debian2::MutexLock" = type { ptr }
%"struct.re2::RefStorage" = type { %"class.absl::debian2::Mutex", %"class.absl::debian2::flat_hash_map" }
%"class.absl::debian2::Mutex" = type { %"struct.std::atomic.28" }
%"struct.std::atomic.28" = type { %"struct.std::__atomic_base.29" }
%"struct.std::__atomic_base.29" = type { i64 }
%"class.absl::debian2::flat_hash_map" = type { %"class.absl::debian2::container_internal::raw_hash_map" }
%"class.absl::debian2::container_internal::raw_hash_map" = type { %"class.absl::debian2::container_internal::raw_hash_set" }
%"class.absl::debian2::container_internal::raw_hash_set" = type { ptr, ptr, i64, i64, %"class.absl::debian2::container_internal::CompressedTuple" }
%"class.absl::debian2::container_internal::CompressedTuple" = type { %"struct.absl::debian2::container_internal::internal_compressed_tuple::CompressedTupleImpl" }
%"struct.absl::debian2::container_internal::internal_compressed_tuple::CompressedTupleImpl" = type { %"struct.absl::debian2::container_internal::internal_compressed_tuple::Storage" }
%"struct.absl::debian2::container_internal::internal_compressed_tuple::Storage" = type { i64 }

@_ZN3re2L11ref_storageE = internal global [48 x i8] zeroinitializer, align 8

; Function Attrs: mustprogress nounwind uwtable
define linkonce_odr void @_ZN4absl7debian29MutexLockD2Ev(ptr noundef nonnull align 8 dereferenceable(8) %this) unnamed_addr #0 comdat align 2 personality ptr @__gxx_personality_v0 {
entry:
  %this.addr = alloca ptr, align 8
  store ptr %this, ptr %this.addr, align 8
  %this1 = load ptr, ptr %this.addr, align 8
  %mu_ = getelementptr inbounds %"class.absl::debian2::MutexLock", ptr %this1, i32 0, i32 0
  %0 = load ptr, ptr %mu_, align 8
  invoke void @_ZN4absl7debian25Mutex6UnlockEv(ptr noundef nonnull align 8 dereferenceable(8) %0)
          to label %invoke.cont unwind label %terminate.lpad

invoke.cont:                                      ; preds = %entry
  ret void

terminate.lpad:                                   ; preds = %entry
  %1 = landingpad { ptr, i32 }
          catch ptr null
  %2 = extractvalue { ptr, i32 } %1, 0
  call void @__clang_call_terminate(ptr %2) #18
  unreachable
}

; Function Attrs: mustprogress nounwind uwtable
define internal noundef ptr @_ZN3re2L7ref_mapEv() #0 {
entry:
  ret ptr getelementptr inbounds (%"struct.re2::RefStorage", ptr @_ZN3re2L11ref_storageE, i32 0, i32 1)
}

; Function Attrs: mustprogress uwtable
define linkonce_odr void @_ZN4absl7debian29MutexLockC2EPNS0_5MutexE(ptr noundef nonnull align 8 dereferenceable(8) %this, ptr noundef %mu) unnamed_addr #3 comdat align 2 {
entry:
  %this.addr = alloca ptr, align 8
  %mu.addr = alloca ptr, align 8
  store ptr %this, ptr %this.addr, align 8
  store ptr %mu, ptr %mu.addr, align 8
  %this1 = load ptr, ptr %this.addr, align 8
  %mu_ = getelementptr inbounds %"class.absl::debian2::MutexLock", ptr %this1, i32 0, i32 0
  %0 = load ptr, ptr %mu.addr, align 8
  store ptr %0, ptr %mu_, align 8
  %mu_2 = getelementptr inbounds %"class.absl::debian2::MutexLock", ptr %this1, i32 0, i32 0
  %1 = load ptr, ptr %mu_2, align 8
  call void @_ZN4absl7debian25Mutex4LockEv(ptr noundef nonnull align 8 dereferenceable(8) %1)
  ret void
}

; Function Attrs: mustprogress nounwind uwtable
define internal noundef ptr @_ZN3re2L9ref_mutexEv() #0 {
entry:
  ret ptr @_ZN3re2L11ref_storageE
}

; Function Attrs: mustprogress uwtable
define noundef i32 @_ZN3re26Regexp3RefEv(ptr noundef nonnull align 8 dereferenceable(40) %this) #3 align 2 personality ptr @__gxx_personality_v0 {
entry:
  %retval = alloca i32, align 4
  %this.addr = alloca ptr, align 8
  %l = alloca %"class.absl::debian2::MutexLock", align 8
  %exn.slot = alloca ptr, align 8
  %ehselector.slot = alloca i32, align 4
  %ref.tmp = alloca ptr, align 8
  store ptr %this, ptr %this.addr, align 8
  %this1 = load ptr, ptr %this.addr, align 8
  %ref_ = getelementptr inbounds %"class.re2::Regexp", ptr %this1, i32 0, i32 3
  %0 = load i16, ptr %ref_, align 4
  %conv = zext i16 %0 to i32
  %cmp = icmp slt i32 %conv, 65535
  br i1 %cmp, label %if.then, label %if.end

if.then:                                          ; preds = %entry
  %ref_2 = getelementptr inbounds %"class.re2::Regexp", ptr %this1, i32 0, i32 3
  %1 = load i16, ptr %ref_2, align 4
  %conv3 = zext i16 %1 to i32
  store i32 %conv3, ptr %retval, align 4
  br label %return

if.end:                                           ; preds = %entry
  %call = call noundef ptr @_ZN3re2L9ref_mutexEv()
  call void @_ZN4absl7debian29MutexLockC2EPNS0_5MutexE(ptr noundef nonnull align 8 dereferenceable(8) %l, ptr noundef %call)
  %call4 = invoke noundef ptr @_ZN3re2L7ref_mapEv()
          to label %invoke.cont unwind label %lpad

invoke.cont:                                      ; preds = %if.end
  store ptr %this1, ptr %ref.tmp, align 8
  %call6 = invoke noundef nonnull align 4 dereferenceable(4) ptr @_ZN4absl7debian218container_internal12raw_hash_mapINS1_17FlatHashMapPolicyIPN3re26RegexpEiEENS1_6HashEqIS6_vE4HashENS9_2EqESaISt4pairIKS6_iEEEixIS6_S7_TnPT_LPS6_0EEEDTclsrT0_5valueclL_ZSt9addressofISE_ESJ_RSI_EclL_ZSt7declvalIRSE_EDTcl9__declvalISI_ELi0EEEvEEEEEOSI_(ptr noundef nonnull align 8 dereferenceable(40) %call4, ptr noundef nonnull align 8 dereferenceable(8) %ref.tmp)
          to label %invoke.cont5 unwind label %lpad

invoke.cont5:                                     ; preds = %invoke.cont
  %2 = load i32, ptr %call6, align 4
  store i32 %2, ptr %retval, align 4
  call void @_ZN4absl7debian29MutexLockD2Ev(ptr noundef nonnull align 8 dereferenceable(8) %l) #16
  br label %return

lpad:                                             ; preds = %invoke.cont, %if.end
  %3 = landingpad { ptr, i32 }
          cleanup
  %4 = extractvalue { ptr, i32 } %3, 0
  store ptr %4, ptr %exn.slot, align 8
  %5 = extractvalue { ptr, i32 } %3, 1
  store i32 %5, ptr %ehselector.slot, align 4
  call void @_ZN4absl7debian29MutexLockD2Ev(ptr noundef nonnull align 8 dereferenceable(8) %l) #16
  br label %eh.resume

return:                                           ; preds = %invoke.cont5, %if.then
  %6 = load i32, ptr %retval, align 4
  ret i32 %6

eh.resume:                                        ; preds = %lpad
  %exn = load ptr, ptr %exn.slot, align 8
  %sel = load i32, ptr %ehselector.slot, align 4
  %lpad.val = insertvalue { ptr, i32 } poison, ptr %exn, 0
  %lpad.val7 = insertvalue { ptr, i32 } %lpad.val, i32 %sel, 1
  resume { ptr, i32 } %lpad.val7
}