; Function Attrs: mustprogress uwtable
define noundef i32 @_ZN3re26Regexp3RefEv(ptr noundef nonnull align 8 dereferenceable(40) %this) local_unnamed_addr #7 align 2 personality ptr @__gxx_personality_v0 {
entry:
  %ref.tmp = alloca ptr, align 8
  %ref_ = getelementptr inbounds i8, ptr %this, i64 4
  %0 = load i16, ptr %ref_, align 4
  %cmp.not = icmp eq i16 %0, -1
  br i1 %cmp.not, label %if.end, label %if.then

if.then:                                          ; preds = %entry
  %conv = zext i16 %0 to i32
  br label %return

if.end:                                           ; preds = %entry
  tail call void @_ZN4absl7debian25Mutex4LockEv(ptr noundef nonnull align 8 dereferenceable(8) @_ZN3re2L11ref_storageE)
  store ptr %this, ptr %ref.tmp, align 8
  %call6 = invoke noundef nonnull align 4 dereferenceable(4) ptr @_ZN4absl7debian218container_internal12raw_hash_mapINS1_17FlatHashMapPolicyIPN3re26RegexpEiEENS1_6HashEqIS6_vE4HashENS9_2EqESaISt4pairIKS6_iEEEixIS6_S7_TnPT_LPS6_0EEEDTclsrT0_5valueclL_ZSt9addressofISE_ESJ_RSI_EclL_ZSt7declvalIRSE_EDTcl9__declvalISI_ELi0EEEvEEEEEOSI_(ptr noundef nonnull align 8 dereferenceable(40) getelementptr inbounds ([48 x i8], ptr @_ZN3re2L11ref_storageE, i64 0, i64 8), ptr noundef nonnull align 8 dereferenceable(8) %ref.tmp)
          to label %invoke.cont5 unwind label %lpad

invoke.cont5:                                     ; preds = %if.end
  %1 = load i32, ptr %call6, align 4
  invoke void @_ZN4absl7debian25Mutex6UnlockEv(ptr noundef nonnull align 8 dereferenceable(8) @_ZN3re2L11ref_storageE)
          to label %return unwind label %terminate.lpad.i

terminate.lpad.i:                                 ; preds = %invoke.cont5
  %2 = landingpad { ptr, i32 }
          catch ptr null
  %3 = extractvalue { ptr, i32 } %2, 0
  call void @__clang_call_terminate(ptr %3) #27
  unreachable

lpad:                                             ; preds = %if.end
  %4 = landingpad { ptr, i32 }
          cleanup
  invoke void @_ZN4absl7debian25Mutex6UnlockEv(ptr noundef nonnull align 8 dereferenceable(8) @_ZN3re2L11ref_storageE)
          to label %_ZN4absl7debian29MutexLockD2Ev.exit2 unwind label %terminate.lpad.i1

terminate.lpad.i1:                                ; preds = %lpad
  %5 = landingpad { ptr, i32 }
          catch ptr null
  %6 = extractvalue { ptr, i32 } %5, 0
  call void @__clang_call_terminate(ptr %6) #27
  unreachable

_ZN4absl7debian29MutexLockD2Ev.exit2:             ; preds = %lpad
  resume { ptr, i32 } %4

return:                                           ; preds = %invoke.cont5, %if.then
  %retval.0 = phi i32 [ %conv, %if.then ], [ %1, %invoke.cont5 ]
  ret i32 %retval.0
}